; ModuleID = 'source-C-CXX/6/137.c'
source_filename = "source-C-CXX/6/137.c"
target datalayout = "e-m:e-p270:32:32-p271:32:32-p272:64:64-i64:64-f80:128-n8:16:32:64-S128"
target triple = "x86_64-pc-linux-gnu"

@.str = private unnamed_addr constant [3 x i8] c"%s\00", align 1

; Function Attrs: nounwind sspstrong uwtable
define dso_local i32 @main() local_unnamed_addr #0 {
  %1 = alloca [257 x i8], align 16
  %2 = alloca [257 x i8], align 16
  %3 = alloca [257 x i8], align 16
  %4 = getelementptr inbounds [257 x i8], [257 x i8]* %3, i64 0, i64 0
  %5 = getelementptr inbounds [257 x i8], [257 x i8]* %1, i64 0, i64 0
  call void @llvm.lifetime.start.p0i8(i64 257, i8* nonnull %5) #7
  %6 = getelementptr inbounds [257 x i8], [257 x i8]* %2, i64 0, i64 0
  call void @llvm.lifetime.start.p0i8(i64 257, i8* nonnull %6) #7
  %7 = getelementptr inbounds [257 x i8], [257 x i8]* %3, i64 0, i64 0
  call void @llvm.lifetime.start.p0i8(i64 257, i8* nonnull %7) #7
  %8 = call i32 (i8*, ...) bitcast (i32 (...)* @gets to i32 (i8*, ...)*)(i8* nonnull %5) #7
  %9 = call i32 (i8*, ...) bitcast (i32 (...)* @gets to i32 (i8*, ...)*)(i8* nonnull %6) #7
  %10 = call i32 (i8*, ...) bitcast (i32 (...)* @gets to i32 (i8*, ...)*)(i8* nonnull %7) #7
  %11 = call i64 @strlen(i8* noundef nonnull %5) #8
  %12 = trunc i64 %11 to i32
  %13 = call i64 @strlen(i8* noundef nonnull %6) #8
  %14 = trunc i64 %13 to i32
  %15 = icmp slt i32 %12, %14
  br i1 %15, label %55, label %16

16:                                               ; preds = %0
  %17 = add i64 %11, 1
  %18 = sub i64 %17, %13
  %19 = and i64 %18, 4294967295
  %20 = icmp sgt i32 %14, 0
  br label %21

21:                                               ; preds = %16, %51
  %22 = phi i64 [ 0, %16 ], [ %53, %51 ]
  %23 = phi i32 [ 0, %16 ], [ %52, %51 ]
  %24 = add nsw i32 %23, %14
  br i1 %20, label %25, label %55

25:                                               ; preds = %21, %25
  %26 = phi i64 [ %35, %25 ], [ %22, %21 ]
  %27 = phi i64 [ %36, %25 ], [ 0, %21 ]
  %28 = phi i32 [ %34, %25 ], [ 0, %21 ]
  %29 = getelementptr inbounds [257 x i8], [257 x i8]* %1, i64 0, i64 %26
  %30 = load i8, i8* %29, align 1, !tbaa !5
  %31 = getelementptr inbounds [257 x i8], [257 x i8]* %2, i64 0, i64 %27
  %32 = load i8, i8* %31, align 1, !tbaa !5
  %33 = icmp eq i8 %30, %32
  %34 = select i1 %33, i32 %28, i32 1
  %35 = add nuw nsw i64 %26, 1
  %36 = add nuw nsw i64 %27, 1
  %37 = trunc i64 %35 to i32
  %38 = icmp sgt i32 %24, %37
  br i1 %38, label %25, label %39, !llvm.loop !8

39:                                               ; preds = %25
  %40 = icmp eq i32 %34, 0
  br i1 %40, label %41, label %51

41:                                               ; preds = %39
  br i1 %20, label %42, label %55

42:                                               ; preds = %41
  %43 = zext i32 %23 to i64
  %44 = getelementptr [257 x i8], [257 x i8]* %1, i64 0, i64 %43
  %45 = add nuw i32 %23, 1
  %46 = call i32 @llvm.smax.i32(i32 %24, i32 %45)
  %47 = xor i32 %23, -1
  %48 = add i32 %46, %47
  %49 = zext i32 %48 to i64
  %50 = add nuw nsw i64 %49, 1
  call void @llvm.memcpy.p0i8.p0i8.i64(i8* noundef nonnull align 1 dereferenceable(1) %44, i8* noundef nonnull align 16 %4, i64 %50, i1 false)
  br label %55

51:                                               ; preds = %39
  %52 = add nuw nsw i32 %23, 1
  %53 = add nuw nsw i64 %22, 1
  %54 = icmp eq i64 %53, %19
  br i1 %54, label %55, label %21, !llvm.loop !10

55:                                               ; preds = %21, %51, %42, %0, %41
  %56 = call i32 (i8*, ...) @printf(i8* nonnull dereferenceable(1) getelementptr inbounds ([3 x i8], [3 x i8]* @.str, i64 0, i64 0), i8* nonnull %5)
  call void @llvm.lifetime.end.p0i8(i64 257, i8* nonnull %7) #7
  call void @llvm.lifetime.end.p0i8(i64 257, i8* nonnull %6) #7
  call void @llvm.lifetime.end.p0i8(i64 257, i8* nonnull %5) #7
  ret i32 0
}

; Function Attrs: argmemonly mustprogress nofree nosync nounwind willreturn
declare void @llvm.lifetime.start.p0i8(i64 immarg, i8* nocapture) #1

declare i32 @gets(...) local_unnamed_addr #2

; Function Attrs: argmemonly mustprogress nofree nounwind readonly willreturn
declare i64 @strlen(i8* nocapture) local_unnamed_addr #3

; Function Attrs: nofree nounwind
declare noundef i32 @printf(i8* nocapture noundef readonly, ...) local_unnamed_addr #4

; Function Attrs: argmemonly mustprogress nofree nosync nounwind willreturn
declare void @llvm.lifetime.end.p0i8(i64 immarg, i8* nocapture) #1

; Function Attrs: nofree nosync nounwind readnone speculatable willreturn
declare i32 @llvm.smax.i32(i32, i32) #5

; Function Attrs: argmemonly nofree nounwind willreturn
declare void @llvm.memcpy.p0i8.p0i8.i64(i8* noalias nocapture writeonly, i8* noalias nocapture readonly, i64, i1 immarg) #6


!llvm.module.flags = !{!0, !1, !2, !3}
!llvm.ident = !{!4}

!0 = !{i32 1, !"wchar_size", i32 4}
!1 = !{i32 7, !"PIC Level", i32 2}
!2 = !{i32 7, !"PIE Level", i32 2}
!3 = !{i32 7, !"uwtable", i32 1}
!4 = !{!"clang version 13.0.0"}
!5 = !{!6, !6, i64 0}
!6 = !{!"omnipotent char", !7, i64 0}
!7 = !{!"Simple C/C++ TBAA"}
!8 = distinct !{!8, !9}
!9 = !{!"llvm.loop.mustprogress"}
!10 = distinct !{!10, !9}
